
_interrupt:

;Exterrnal_Interrupt.c,19 :: 		void interrupt(){
;Exterrnal_Interrupt.c,21 :: 		for (x=1; x<=4; x++){
	MOVLW       1
	MOVWF       _x+0 
	MOVLW       0
	MOVWF       _x+1 
L_interrupt0:
	MOVLW       128
	MOVWF       R0 
	MOVLW       128
	XORWF       _x+1, 0 
	SUBWF       R0, 0 
	BTFSS       STATUS+0, 2 
	GOTO        L__interrupt13
	MOVF        _x+0, 0 
	SUBLW       4
L__interrupt13:
	BTFSS       STATUS+0, 0 
	GOTO        L_interrupt1
;Exterrnal_Interrupt.c,22 :: 		SOS = ~SOS;
	BTG         LATD3_bit+0, BitPos(LATD3_bit+0) 
;Exterrnal_Interrupt.c,23 :: 		delay_ms(200);
	MOVLW       3
	MOVWF       R11, 0
	MOVLW       8
	MOVWF       R12, 0
	MOVLW       119
	MOVWF       R13, 0
L_interrupt3:
	DECFSZ      R13, 1, 1
	BRA         L_interrupt3
	DECFSZ      R12, 1, 1
	BRA         L_interrupt3
	DECFSZ      R11, 1, 1
	BRA         L_interrupt3
;Exterrnal_Interrupt.c,21 :: 		for (x=1; x<=4; x++){
	INFSNZ      _x+0, 1 
	INCF        _x+1, 1 
;Exterrnal_Interrupt.c,24 :: 		}
	GOTO        L_interrupt0
L_interrupt1:
;Exterrnal_Interrupt.c,27 :: 		UART1_Read();                        //PIR1.b5 or RC1IF only clears if you read the buffer uart rx
	CALL        _UART1_Read+0, 0
;Exterrnal_Interrupt.c,28 :: 		}
L_end_interrupt:
L__interrupt12:
	RETFIE      1
; end of _interrupt

_main:

;Exterrnal_Interrupt.c,59 :: 		void main(){
;Exterrnal_Interrupt.c,60 :: 		INTCON = 0b11000000;       //set INtcon to use pheripheral interrupt
	MOVLW       192
	MOVWF       INTCON+0 
;Exterrnal_Interrupt.c,61 :: 		PIE1 = 0b00100000;
	MOVLW       32
	MOVWF       PIE1+0 
;Exterrnal_Interrupt.c,63 :: 		ANSELD = 0;                //disable analog in port D
	CLRF        ANSELD+0 
;Exterrnal_Interrupt.c,64 :: 		ANSELB = 0;                //disable analog in port B
	CLRF        ANSELB+0 
;Exterrnal_Interrupt.c,65 :: 		TRISD = 0;                 //Set port D as output
	CLRF        TRISD+0 
;Exterrnal_Interrupt.c,66 :: 		ANSELC = 0;
	CLRF        ANSELC+0 
;Exterrnal_Interrupt.c,68 :: 		UART1_Init(19200);
	BSF         BAUDCON+0, 3, 0
	CLRF        SPBRGH+0 
	MOVLW       103
	MOVWF       SPBRG+0 
	BSF         TXSTA+0, 2, 0
	CALL        _UART1_Init+0, 0
;Exterrnal_Interrupt.c,69 :: 		delay_ms(500);
	MOVLW       6
	MOVWF       R11, 0
	MOVLW       19
	MOVWF       R12, 0
	MOVLW       173
	MOVWF       R13, 0
L_main4:
	DECFSZ      R13, 1, 1
	BRA         L_main4
	DECFSZ      R12, 1, 1
	BRA         L_main4
	DECFSZ      R11, 1, 1
	BRA         L_main4
	NOP
	NOP
;Exterrnal_Interrupt.c,71 :: 		UART1_Write_Text("Start typing to cause an Interrupt \r\n");
	MOVLW       ?lstr1_Exterrnal_Interrupt+0
	MOVWF       FARG_UART1_Write_Text_uart_text+0 
	MOVLW       hi_addr(?lstr1_Exterrnal_Interrupt+0)
	MOVWF       FARG_UART1_Write_Text_uart_text+1 
	CALL        _UART1_Write_Text+0, 0
;Exterrnal_Interrupt.c,72 :: 		delay_ms(500);
	MOVLW       6
	MOVWF       R11, 0
	MOVLW       19
	MOVWF       R12, 0
	MOVLW       173
	MOVWF       R13, 0
L_main5:
	DECFSZ      R13, 1, 1
	BRA         L_main5
	DECFSZ      R12, 1, 1
	BRA         L_main5
	DECFSZ      R11, 1, 1
	BRA         L_main5
	NOP
	NOP
;Exterrnal_Interrupt.c,74 :: 		while(1){
L_main6:
;Exterrnal_Interrupt.c,76 :: 		LED_Red = ~LED_Red;
	BTG         LATD0_bit+0, BitPos(LATD0_bit+0) 
;Exterrnal_Interrupt.c,77 :: 		delay_ms(200);
	MOVLW       3
	MOVWF       R11, 0
	MOVLW       8
	MOVWF       R12, 0
	MOVLW       119
	MOVWF       R13, 0
L_main8:
	DECFSZ      R13, 1, 1
	BRA         L_main8
	DECFSZ      R12, 1, 1
	BRA         L_main8
	DECFSZ      R11, 1, 1
	BRA         L_main8
;Exterrnal_Interrupt.c,78 :: 		LED_Green = ~LED_Green;
	BTG         LATD1_bit+0, BitPos(LATD1_bit+0) 
;Exterrnal_Interrupt.c,79 :: 		delay_ms(200);
	MOVLW       3
	MOVWF       R11, 0
	MOVLW       8
	MOVWF       R12, 0
	MOVLW       119
	MOVWF       R13, 0
L_main9:
	DECFSZ      R13, 1, 1
	BRA         L_main9
	DECFSZ      R12, 1, 1
	BRA         L_main9
	DECFSZ      R11, 1, 1
	BRA         L_main9
;Exterrnal_Interrupt.c,80 :: 		LED_Blue = ~LED_Blue;
	BTG         LATD2_bit+0, BitPos(LATD2_bit+0) 
;Exterrnal_Interrupt.c,81 :: 		delay_ms(200);
	MOVLW       3
	MOVWF       R11, 0
	MOVLW       8
	MOVWF       R12, 0
	MOVLW       119
	MOVWF       R13, 0
L_main10:
	DECFSZ      R13, 1, 1
	BRA         L_main10
	DECFSZ      R12, 1, 1
	BRA         L_main10
	DECFSZ      R11, 1, 1
	BRA         L_main10
;Exterrnal_Interrupt.c,83 :: 		}
	GOTO        L_main6
;Exterrnal_Interrupt.c,85 :: 		}
L_end_main:
	GOTO        $+0
; end of _main
